; ModuleID = '57/1186.c'
source_filename = "57/1186.c"
target datalayout = "e-m:e-p270:32:32-p271:32:32-p272:64:64-i64:64-f80:128-n8:16:32:64-S128"
target triple = "x86_64-pc-linux-gnu"

@.str = private unnamed_addr constant [3 x i8] c"%d\00", align 1
@.str.1 = private unnamed_addr constant [3 x i8] c"%s\00", align 1
@.str.2 = private unnamed_addr constant [4 x i8] c"%s\0A\00", align 1

; Function Attrs: noinline nounwind uwtable
define dso_local i32 @main() #0 {
  %1 = alloca i32, align 4
  %2 = alloca i32, align 4
  %3 = alloca i32, align 4
  %4 = alloca i32, align 4
  %5 = alloca i32, align 4
  %6 = alloca i32, align 4
  %7 = alloca [100 x [32 x i8]], align 16
  store i32 0, i32* %1, align 4
  store i32 103, i32* %6, align 4
  %8 = call i32 (i8*, ...) @__isoc99_scanf(i8* getelementptr inbounds ([3 x i8], [3 x i8]* @.str, i64 0, i64 0), i32* %2)
  store i32 0, i32* %3, align 4
  br label %9

9:                                                ; preds = %19, %0
  %10 = load i32, i32* %3, align 4
  %11 = load i32, i32* %2, align 4
  %12 = icmp slt i32 %10, %11
  br i1 %12, label %13, label %22

13:                                               ; preds = %9
  %14 = load i32, i32* %3, align 4
  %15 = sext i32 %14 to i64
  %16 = getelementptr inbounds [100 x [32 x i8]], [100 x [32 x i8]]* %7, i64 0, i64 %15
  %17 = getelementptr inbounds [32 x i8], [32 x i8]* %16, i64 0, i64 0
  %18 = call i32 (i8*, ...) @__isoc99_scanf(i8* getelementptr inbounds ([3 x i8], [3 x i8]* @.str.1, i64 0, i64 0), i8* %17)
  br label %19

19:                                               ; preds = %13
  %20 = load i32, i32* %3, align 4
  %21 = add nsw i32 %20, 1
  store i32 %21, i32* %3, align 4
  br label %9

22:                                               ; preds = %9
  store i32 0, i32* %3, align 4
  br label %23

23:                                               ; preds = %62, %22
  %24 = load i32, i32* %3, align 4
  %25 = load i32, i32* %2, align 4
  %26 = icmp slt i32 %24, %25
  br i1 %26, label %27, label %65

27:                                               ; preds = %23
  %28 = load i32, i32* %3, align 4
  %29 = sext i32 %28 to i64
  %30 = getelementptr inbounds [100 x [32 x i8]], [100 x [32 x i8]]* %7, i64 0, i64 %29
  %31 = getelementptr inbounds [32 x i8], [32 x i8]* %30, i64 0, i64 0
  %32 = call i64 @strlen(i8* %31) #3
  %33 = trunc i64 %32 to i32
  store i32 %33, i32* %5, align 4
  %34 = load i32, i32* %3, align 4
  %35 = sext i32 %34 to i64
  %36 = getelementptr inbounds [100 x [32 x i8]], [100 x [32 x i8]]* %7, i64 0, i64 %35
  %37 = load i32, i32* %5, align 4
  %38 = sub nsw i32 %37, 1
  %39 = sext i32 %38 to i64
  %40 = getelementptr inbounds [32 x i8], [32 x i8]* %36, i64 0, i64 %39
  %41 = load i8, i8* %40, align 1
  %42 = sext i8 %41 to i32
  %43 = load i32, i32* %6, align 4
  %44 = icmp eq i32 %42, %43
  br i1 %44, label %45, label %53

45:                                               ; preds = %27
  %46 = load i32, i32* %3, align 4
  %47 = sext i32 %46 to i64
  %48 = getelementptr inbounds [100 x [32 x i8]], [100 x [32 x i8]]* %7, i64 0, i64 %47
  %49 = load i32, i32* %5, align 4
  %50 = sub nsw i32 %49, 3
  %51 = sext i32 %50 to i64
  %52 = getelementptr inbounds [32 x i8], [32 x i8]* %48, i64 0, i64 %51
  store i8 0, i8* %52, align 1
  br label %61

53:                                               ; preds = %27
  %54 = load i32, i32* %3, align 4
  %55 = sext i32 %54 to i64
  %56 = getelementptr inbounds [100 x [32 x i8]], [100 x [32 x i8]]* %7, i64 0, i64 %55
  %57 = load i32, i32* %5, align 4
  %58 = sub nsw i32 %57, 2
  %59 = sext i32 %58 to i64
  %60 = getelementptr inbounds [32 x i8], [32 x i8]* %56, i64 0, i64 %59
  store i8 0, i8* %60, align 1
  br label %61

61:                                               ; preds = %53, %45
  br label %62

62:                                               ; preds = %61
  %63 = load i32, i32* %3, align 4
  %64 = add nsw i32 %63, 1
  store i32 %64, i32* %3, align 4
  br label %23

65:                                               ; preds = %23
  store i32 0, i32* %3, align 4
  br label %66

66:                                               ; preds = %76, %65
  %67 = load i32, i32* %3, align 4
  %68 = load i32, i32* %2, align 4
  %69 = icmp slt i32 %67, %68
  br i1 %69, label %70, label %79

70:                                               ; preds = %66
  %71 = load i32, i32* %3, align 4
  %72 = sext i32 %71 to i64
  %73 = getelementptr inbounds [100 x [32 x i8]], [100 x [32 x i8]]* %7, i64 0, i64 %72
  %74 = getelementptr inbounds [32 x i8], [32 x i8]* %73, i64 0, i64 0
  %75 = call i32 (i8*, ...) @printf(i8* getelementptr inbounds ([4 x i8], [4 x i8]* @.str.2, i64 0, i64 0), i8* %74)
  br label %76

76:                                               ; preds = %70
  %77 = load i32, i32* %3, align 4
  %78 = add nsw i32 %77, 1
  store i32 %78, i32* %3, align 4
  br label %66

79:                                               ; preds = %66
  ret i32 0
}

declare dso_local i32 @__isoc99_scanf(i8*, ...) #1

; Function Attrs: nounwind readonly
declare dso_local i64 @strlen(i8*) #2

declare dso_local i32 @printf(i8*, ...) #1


!llvm.module.flags = !{!0}
!llvm.ident = !{!1}

!0 = !{i32 1, !"wchar_size", i32 4}
!1 = !{!"clang version 10.0.0-4ubuntu1 "}
